target datalayout = "e-m:e-p270:32:32-p271:32:32-p272:64:64-i64:64-i128:128-f80:128-n8:16:32:64-S128"
target triple = "x86_64-pc-linux-gnu"

%struct.sct_ctx_st = type { ptr, ptr, i64, ptr, i64, ptr, i64, ptr, i64, i64, ptr, ptr }

; Function Attrs: nounwind uwtable
define i32 @SCT_CTX_set1_pubkey(ptr noundef %0, ptr noundef %1) #0 {
  %3 = alloca i32, align 4
  %4 = alloca ptr, align 8
  %5 = alloca ptr, align 8
  %6 = alloca ptr, align 8
  %7 = alloca i32, align 4
  store ptr %0, ptr %4, align 8, !tbaa !10
  store ptr %1, ptr %5, align 8, !tbaa !34
  call void @llvm.lifetime.start.p0(i64 8, ptr %6) #3
  %8 = load ptr, ptr %5, align 8, !tbaa !34
  %9 = call ptr @X509_PUBKEY_get(ptr noundef %8)
  store ptr %9, ptr %6, align 8, !tbaa !43
  %10 = load ptr, ptr %6, align 8, !tbaa !43
  %11 = icmp eq ptr %10, null
  br i1 %11, label %12, label %13

12:                                               ; preds = %2
  store i32 0, ptr %3, align 4
  store i32 1, ptr %7, align 4
  br label %31

13:                                               ; preds = %2
  %14 = load ptr, ptr %4, align 8, !tbaa !10
  %15 = load ptr, ptr %5, align 8, !tbaa !34
  %16 = load ptr, ptr %4, align 8, !tbaa !10
  %17 = getelementptr inbounds nuw %struct.sct_ctx_st, ptr %16, i32 0, i32 1
  %18 = load ptr, ptr %4, align 8, !tbaa !10
  %19 = getelementptr inbounds nuw %struct.sct_ctx_st, ptr %18, i32 0, i32 2
  %20 = call i32 @ct_public_key_hash(ptr noundef %14, ptr noundef %15, ptr noundef %17, ptr noundef %19)
  %21 = icmp ne i32 %20, 0
  br i1 %21, label %24, label %22

22:                                               ; preds = %13
  %23 = load ptr, ptr %6, align 8, !tbaa !43
  call void @EVP_PKEY_free(ptr noundef %23)
  store i32 0, ptr %3, align 4
  store i32 1, ptr %7, align 4
  br label %31

24:                                               ; preds = %13
  %25 = load ptr, ptr %4, align 8, !tbaa !10
  %26 = getelementptr inbounds nuw %struct.sct_ctx_st, ptr %25, i32 0, i32 0
  %27 = load ptr, ptr %26, align 8, !tbaa !17
  call void @EVP_PKEY_free(ptr noundef %27)
  %28 = load ptr, ptr %6, align 8, !tbaa !43
  %29 = load ptr, ptr %4, align 8, !tbaa !10
  %30 = getelementptr inbounds nuw %struct.sct_ctx_st, ptr %29, i32 0, i32 0
  store ptr %28, ptr %30, align 8, !tbaa !17
  store i32 1, ptr %3, align 4
  store i32 1, ptr %7, align 4
  br label %31

31:                                               ; preds = %24, %22, %12
  call void @llvm.lifetime.end.p0(i64 8, ptr %6) #3
  %32 = load i32, ptr %3, align 4
  ret i32 %32
}