; Function Attrs: nounwind uwtable
define range(i32 0, 2) i32 @SCT_CTX_set1_pubkey(ptr noundef captures(none) %0, ptr noundef %1) local_unnamed_addr #0 {
  %3 = tail call ptr @X509_PUBKEY_get(ptr noundef %1) #4
  %4 = icmp eq ptr %3, null
  br i1 %4, label %14, label %5

5:                                                ; preds = %2
  %6 = getelementptr inbounds nuw i8, ptr %0, i64 8
  %7 = getelementptr inbounds nuw i8, ptr %0, i64 16
  %8 = getelementptr i8, ptr %0, i64 80
  %.val = load ptr, ptr %8, align 8, !tbaa !3
  %9 = getelementptr i8, ptr %0, i64 88
  %.val11 = load ptr, ptr %9, align 8, !tbaa !12
  %10 = tail call fastcc i32 @ct_public_key_hash(ptr %.val, ptr %.val11, ptr noundef %1, ptr noundef nonnull %6, ptr noundef nonnull %7)
  %.not = icmp eq i32 %10, 0
  br i1 %.not, label %11, label %12

11:                                               ; preds = %5
  tail call void @EVP_PKEY_free(ptr noundef nonnull %3) #4
  br label %14

12:                                               ; preds = %5
  %13 = load ptr, ptr %0, align 8, !tbaa !13
  tail call void @EVP_PKEY_free(ptr noundef %13) #4
  store ptr %3, ptr %0, align 8, !tbaa !13
  br label %14

14:                                               ; preds = %2, %12, %11
  %.0 = phi i32 [ 1, %12 ], [ 0, %11 ], [ 0, %2 ]
  ret i32 %.0
}